#include <math.h>
#include <stdio.h>
#include <stdlib.h>
#include <string.h>

int main()
{
	int i,j;
	double k,n[100],x[100],a[100],b[100],c[100],d[100];
	scanf("%lf",&k);
	for(i=0;i<k;i++)
	{
		a[i]=0;
		c[i]=0;
		scanf("%lf",&n[i]);
		for(j=0;j<n[i];j++)
			scanf("%lf",&x[j]);
        for(j=0;j<n[i];j++)
			a[i]=a[i]+x[j];
		b[i]=a[i]/n[i];
		for(j=0;j<n[i];j++)
			c[i]=c[i]+(x[j]-b[i])*(x[j]-b[i]);
		d[i]=sqrt(c[i]/n[i]);
	}
	for(i=0;i<k;i++)
		printf("%.5lf\n",d[i]);
	return 0;
}