; ModuleID = '38/285.c'
source_filename = "38/285.c"
target datalayout = "e-m:e-p270:32:32-p271:32:32-p272:64:64-i64:64-f80:128-n8:16:32:64-S128"
target triple = "x86_64-pc-linux-gnu"

@.str = private unnamed_addr constant [4 x i8] c"%lf\00", align 1
@.str.1 = private unnamed_addr constant [7 x i8] c"%.5lf\0A\00", align 1

; Function Attrs: noinline nounwind uwtable
define dso_local i32 @main() #0 {
  %1 = alloca i32, align 4
  %2 = alloca i32, align 4
  %3 = alloca i32, align 4
  %4 = alloca double, align 8
  %5 = alloca [100 x double], align 16
  %6 = alloca [100 x double], align 16
  %7 = alloca [100 x double], align 16
  %8 = alloca [100 x double], align 16
  %9 = alloca [100 x double], align 16
  %10 = alloca [100 x double], align 16
  store i32 0, i32* %1, align 4
  %11 = call i32 (i8*, ...) @__isoc99_scanf(i8* getelementptr inbounds ([4 x i8], [4 x i8]* @.str, i64 0, i64 0), double* %4)
  store i32 0, i32* %2, align 4
  br label %12

12:                                               ; preds = %135, %0
  %13 = load i32, i32* %2, align 4
  %14 = sitofp i32 %13 to double
  %15 = load double, double* %4, align 8
  %16 = fcmp olt double %14, %15
  br i1 %16, label %17, label %138

17:                                               ; preds = %12
  %18 = load i32, i32* %2, align 4
  %19 = sext i32 %18 to i64
  %20 = getelementptr inbounds [100 x double], [100 x double]* %7, i64 0, i64 %19
  store double 0.000000e+00, double* %20, align 8
  %21 = load i32, i32* %2, align 4
  %22 = sext i32 %21 to i64
  %23 = getelementptr inbounds [100 x double], [100 x double]* %9, i64 0, i64 %22
  store double 0.000000e+00, double* %23, align 8
  %24 = load i32, i32* %2, align 4
  %25 = sext i32 %24 to i64
  %26 = getelementptr inbounds [100 x double], [100 x double]* %5, i64 0, i64 %25
  %27 = call i32 (i8*, ...) @__isoc99_scanf(i8* getelementptr inbounds ([4 x i8], [4 x i8]* @.str, i64 0, i64 0), double* %26)
  store i32 0, i32* %3, align 4
  br label %28

28:                                               ; preds = %41, %17
  %29 = load i32, i32* %3, align 4
  %30 = sitofp i32 %29 to double
  %31 = load i32, i32* %2, align 4
  %32 = sext i32 %31 to i64
  %33 = getelementptr inbounds [100 x double], [100 x double]* %5, i64 0, i64 %32
  %34 = load double, double* %33, align 8
  %35 = fcmp olt double %30, %34
  br i1 %35, label %36, label %44

36:                                               ; preds = %28
  %37 = load i32, i32* %3, align 4
  %38 = sext i32 %37 to i64
  %39 = getelementptr inbounds [100 x double], [100 x double]* %6, i64 0, i64 %38
  %40 = call i32 (i8*, ...) @__isoc99_scanf(i8* getelementptr inbounds ([4 x i8], [4 x i8]* @.str, i64 0, i64 0), double* %39)
  br label %41

41:                                               ; preds = %36
  %42 = load i32, i32* %3, align 4
  %43 = add nsw i32 %42, 1
  store i32 %43, i32* %3, align 4
  br label %28

44:                                               ; preds = %28
  store i32 0, i32* %3, align 4
  br label %45

45:                                               ; preds = %66, %44
  %46 = load i32, i32* %3, align 4
  %47 = sitofp i32 %46 to double
  %48 = load i32, i32* %2, align 4
  %49 = sext i32 %48 to i64
  %50 = getelementptr inbounds [100 x double], [100 x double]* %5, i64 0, i64 %49
  %51 = load double, double* %50, align 8
  %52 = fcmp olt double %47, %51
  br i1 %52, label %53, label %69

53:                                               ; preds = %45
  %54 = load i32, i32* %2, align 4
  %55 = sext i32 %54 to i64
  %56 = getelementptr inbounds [100 x double], [100 x double]* %7, i64 0, i64 %55
  %57 = load double, double* %56, align 8
  %58 = load i32, i32* %3, align 4
  %59 = sext i32 %58 to i64
  %60 = getelementptr inbounds [100 x double], [100 x double]* %6, i64 0, i64 %59
  %61 = load double, double* %60, align 8
  %62 = fadd double %57, %61
  %63 = load i32, i32* %2, align 4
  %64 = sext i32 %63 to i64
  %65 = getelementptr inbounds [100 x double], [100 x double]* %7, i64 0, i64 %64
  store double %62, double* %65, align 8
  br label %66

66:                                               ; preds = %53
  %67 = load i32, i32* %3, align 4
  %68 = add nsw i32 %67, 1
  store i32 %68, i32* %3, align 4
  br label %45

69:                                               ; preds = %45
  %70 = load i32, i32* %2, align 4
  %71 = sext i32 %70 to i64
  %72 = getelementptr inbounds [100 x double], [100 x double]* %7, i64 0, i64 %71
  %73 = load double, double* %72, align 8
  %74 = load i32, i32* %2, align 4
  %75 = sext i32 %74 to i64
  %76 = getelementptr inbounds [100 x double], [100 x double]* %5, i64 0, i64 %75
  %77 = load double, double* %76, align 8
  %78 = fdiv double %73, %77
  %79 = load i32, i32* %2, align 4
  %80 = sext i32 %79 to i64
  %81 = getelementptr inbounds [100 x double], [100 x double]* %8, i64 0, i64 %80
  store double %78, double* %81, align 8
  store i32 0, i32* %3, align 4
  br label %82

82:                                               ; preds = %118, %69
  %83 = load i32, i32* %3, align 4
  %84 = sitofp i32 %83 to double
  %85 = load i32, i32* %2, align 4
  %86 = sext i32 %85 to i64
  %87 = getelementptr inbounds [100 x double], [100 x double]* %5, i64 0, i64 %86
  %88 = load double, double* %87, align 8
  %89 = fcmp olt double %84, %88
  br i1 %89, label %90, label %121

90:                                               ; preds = %82
  %91 = load i32, i32* %2, align 4
  %92 = sext i32 %91 to i64
  %93 = getelementptr inbounds [100 x double], [100 x double]* %9, i64 0, i64 %92
  %94 = load double, double* %93, align 8
  %95 = load i32, i32* %3, align 4
  %96 = sext i32 %95 to i64
  %97 = getelementptr inbounds [100 x double], [100 x double]* %6, i64 0, i64 %96
  %98 = load double, double* %97, align 8
  %99 = load i32, i32* %2, align 4
  %100 = sext i32 %99 to i64
  %101 = getelementptr inbounds [100 x double], [100 x double]* %8, i64 0, i64 %100
  %102 = load double, double* %101, align 8
  %103 = fsub double %98, %102
  %104 = load i32, i32* %3, align 4
  %105 = sext i32 %104 to i64
  %106 = getelementptr inbounds [100 x double], [100 x double]* %6, i64 0, i64 %105
  %107 = load double, double* %106, align 8
  %108 = load i32, i32* %2, align 4
  %109 = sext i32 %108 to i64
  %110 = getelementptr inbounds [100 x double], [100 x double]* %8, i64 0, i64 %109
  %111 = load double, double* %110, align 8
  %112 = fsub double %107, %111
  %113 = fmul double %103, %112
  %114 = fadd double %94, %113
  %115 = load i32, i32* %2, align 4
  %116 = sext i32 %115 to i64
  %117 = getelementptr inbounds [100 x double], [100 x double]* %9, i64 0, i64 %116
  store double %114, double* %117, align 8
  br label %118

118:                                              ; preds = %90
  %119 = load i32, i32* %3, align 4
  %120 = add nsw i32 %119, 1
  store i32 %120, i32* %3, align 4
  br label %82

121:                                              ; preds = %82
  %122 = load i32, i32* %2, align 4
  %123 = sext i32 %122 to i64
  %124 = getelementptr inbounds [100 x double], [100 x double]* %9, i64 0, i64 %123
  %125 = load double, double* %124, align 8
  %126 = load i32, i32* %2, align 4
  %127 = sext i32 %126 to i64
  %128 = getelementptr inbounds [100 x double], [100 x double]* %5, i64 0, i64 %127
  %129 = load double, double* %128, align 8
  %130 = fdiv double %125, %129
  %131 = call double @sqrt(double %130) #3
  %132 = load i32, i32* %2, align 4
  %133 = sext i32 %132 to i64
  %134 = getelementptr inbounds [100 x double], [100 x double]* %10, i64 0, i64 %133
  store double %131, double* %134, align 8
  br label %135

135:                                              ; preds = %121
  %136 = load i32, i32* %2, align 4
  %137 = add nsw i32 %136, 1
  store i32 %137, i32* %2, align 4
  br label %12

138:                                              ; preds = %12
  store i32 0, i32* %2, align 4
  br label %139

139:                                              ; preds = %150, %138
  %140 = load i32, i32* %2, align 4
  %141 = sitofp i32 %140 to double
  %142 = load double, double* %4, align 8
  %143 = fcmp olt double %141, %142
  br i1 %143, label %144, label %153

144:                                              ; preds = %139
  %145 = load i32, i32* %2, align 4
  %146 = sext i32 %145 to i64
  %147 = getelementptr inbounds [100 x double], [100 x double]* %10, i64 0, i64 %146
  %148 = load double, double* %147, align 8
  %149 = call i32 (i8*, ...) @printf(i8* getelementptr inbounds ([7 x i8], [7 x i8]* @.str.1, i64 0, i64 0), double %148)
  br label %150

150:                                              ; preds = %144
  %151 = load i32, i32* %2, align 4
  %152 = add nsw i32 %151, 1
  store i32 %152, i32* %2, align 4
  br label %139

153:                                              ; preds = %139
  ret i32 0
}

declare dso_local i32 @__isoc99_scanf(i8*, ...) #1

; Function Attrs: nounwind
declare dso_local double @sqrt(double) #2

declare dso_local i32 @printf(i8*, ...) #1


!llvm.module.flags = !{!0}
!llvm.ident = !{!1}

!0 = !{i32 1, !"wchar_size", i32 4}
!1 = !{!"clang version 10.0.0-4ubuntu1 "}
